target datalayout = "e-m:e-p270:32:32-p271:32:32-p272:64:64-i64:64-i128:128-f80:128-n8:16:32:64-S128"
target triple = "x86_64-pc-linux-gnu"

@.str.1 = private unnamed_addr constant [1 x i8] zeroinitializer, align 1
@udev_ctx = internal global ptr null, align 8
@last_global_error_str = internal global ptr null, align 8
@SDL_hidapi_refcount = internal global i32 0, align 4
@.str.19 = private unnamed_addr constant [38 x i8] c"SDL_HIDAPI_ENUMERATE_ONLY_CONTROLLERS\00", align 1
@.str.20 = private unnamed_addr constant [26 x i8] c"SDL_HIDAPI_IGNORE_DEVICES\00", align 1
@.str.21 = private unnamed_addr constant [16 x i8] c"SDL_HIDAPI_UDEV\00", align 1
@.str.22 = private unnamed_addr constant [38 x i8] c"udev disabled by SDL_HINT_HIDAPI_UDEV\00", align 1
@linux_enumeration_method = internal global i32 0, align 4
@.str.23 = private unnamed_addr constant [54 x i8] c"Container detected, disabling HIDAPI udev integration\00", align 1
@.str.24 = private unnamed_addr constant [48 x i8] c"Using udev for HIDAPI joystick device discovery\00", align 1
@.str.25 = private unnamed_addr constant [28 x i8] c"SDL_HIDAPI_LIBUSB_WHITELIST\00", align 1
@use_libusb_whitelist = internal global i8 1, align 1
@.str.31 = private unnamed_addr constant [3 x i8] c"%s\00", align 1

; Function Attrs: nounwind uwtable
define internal void @register_error_str(ptr noundef %0, ptr noundef %1) #0 {
  %3 = alloca ptr, align 8
  %4 = alloca ptr, align 8
  store ptr %0, ptr %3, align 8
  store ptr %1, ptr %4, align 8
  %5 = load ptr, ptr %3, align 8
  %6 = load ptr, ptr %5, align 8
  call void @free(ptr noundef %6) #10
  %7 = load ptr, ptr %4, align 8
  %8 = icmp ne ptr %7, null
  br i1 %8, label %9, label %12

9:                                                ; preds = %2
  %10 = load ptr, ptr %4, align 8
  %11 = call zeroext i1 (ptr, ...) @SDL_SetError_REAL(ptr noundef @.str.31, ptr noundef %10)
  br label %14

12:                                               ; preds = %2
  %13 = call zeroext i1 @SDL_ClearError_REAL()
  br label %14

14:                                               ; preds = %12, %9
  ret void
}

; Function Attrs: nounwind uwtable
define internal void @register_global_error(ptr noundef %0) #0 {
  %2 = alloca ptr, align 8
  store ptr %0, ptr %2, align 8
  %3 = load ptr, ptr %2, align 8
  call void @register_error_str(ptr noundef @last_global_error_str, ptr noundef %3)
  ret void
}

; Function Attrs: nounwind uwtable
define hidden i32 @PLATFORM_hid_init() #0 {
  %1 = alloca ptr, align 8
  call void @llvm.lifetime.start.p0(i64 8, ptr %1) #10
  call void @register_global_error(ptr noundef null)
  %2 = call ptr @setlocale(i32 noundef 0, ptr noundef null) #10
  store ptr %2, ptr %1, align 8
  %3 = load ptr, ptr %1, align 8
  %4 = icmp ne ptr %3, null
  br i1 %4, label %7, label %5

5:                                                ; preds = %0
  %6 = call ptr @setlocale(i32 noundef 0, ptr noundef @.str.1) #10
  br label %7

7:                                                ; preds = %5, %0
  call void @llvm.lifetime.end.p0(i64 8, ptr %1) #10
  ret i32 0
}

; Function Attrs: nounwind uwtable
define hidden i32 @SDL_hid_init_REAL() #0 {
  %1 = alloca i32, align 4
  %2 = alloca i32, align 4
  %3 = alloca i32, align 4
  %4 = alloca i32, align 4
  call void @llvm.lifetime.start.p0(i64 4, ptr %2) #10
  store i32 0, ptr %2, align 4
  call void @llvm.lifetime.start.p0(i64 4, ptr %3) #10
  store i32 0, ptr %3, align 4
  %5 = load i32, ptr @SDL_hidapi_refcount, align 4
  %6 = icmp sgt i32 %5, 0
  br i1 %6, label %7, label %10

7:                                                ; preds = %0
  %8 = load i32, ptr @SDL_hidapi_refcount, align 4
  %9 = add nsw i32 %8, 1
  store i32 %9, ptr @SDL_hidapi_refcount, align 4
  store i32 0, ptr %1, align 4
  store i32 1, ptr %4, align 4
  br label %45

10:                                               ; preds = %0
  %11 = call zeroext i1 @SDL_AddHintCallback_REAL(ptr noundef @.str.19, ptr noundef @OnlyControllersChanged, ptr noundef null)
  %12 = call zeroext i1 @SDL_AddHintCallback_REAL(ptr noundef @.str.20, ptr noundef @IgnoredDevicesChanged, ptr noundef null)
  %13 = call zeroext i1 @SDL_GetHintBoolean_REAL(ptr noundef @.str.21, i1 noundef zeroext true)
  br i1 %13, label %15, label %14

14:                                               ; preds = %10
  call void (i32, ptr, ...) @SDL_LogDebug_REAL(i32 noundef 7, ptr noundef @.str.22)
  store i32 2, ptr @linux_enumeration_method, align 4
  br label %21

15:                                               ; preds = %10
  %16 = call i32 @SDL_GetSandbox_REAL()
  %17 = icmp ne i32 %16, 0
  br i1 %17, label %18, label %19

18:                                               ; preds = %15
  call void (i32, ptr, ...) @SDL_LogDebug_REAL(i32 noundef 7, ptr noundef @.str.23)
  store i32 2, ptr @linux_enumeration_method, align 4
  br label %20

19:                                               ; preds = %15
  call void (i32, ptr, ...) @SDL_LogDebug_REAL(i32 noundef 7, ptr noundef @.str.24)
  store i32 1, ptr @linux_enumeration_method, align 4
  br label %20

20:                                               ; preds = %19, %18
  br label %21

21:                                               ; preds = %20, %14
  %22 = call zeroext i1 @SDL_GetHintBoolean_REAL(ptr noundef @.str.25, i1 noundef zeroext true)
  %23 = zext i1 %22 to i8
  store i8 %23, ptr @use_libusb_whitelist, align 1
  %24 = load i32, ptr %2, align 4
  %25 = add nsw i32 %24, 1
  store i32 %25, ptr %2, align 4
  %26 = call ptr @SDL_UDEV_GetUdevSyms()
  store ptr %26, ptr @udev_ctx, align 8
  %27 = load ptr, ptr @udev_ctx, align 8
  %28 = icmp ne ptr %27, null
  br i1 %28, label %29, label %35

29:                                               ; preds = %21
  %30 = call i32 @PLATFORM_hid_init()
  %31 = icmp eq i32 %30, 0
  br i1 %31, label %32, label %35

32:                                               ; preds = %29
  %33 = load i32, ptr %3, align 4
  %34 = add nsw i32 %33, 1
  store i32 %34, ptr %3, align 4
  br label %35

35:                                               ; preds = %32, %29, %21
  %36 = load i32, ptr %2, align 4
  %37 = icmp sgt i32 %36, 0
  br i1 %37, label %38, label %42

38:                                               ; preds = %35
  %39 = load i32, ptr %3, align 4
  %40 = icmp eq i32 %39, 0
  br i1 %40, label %41, label %42

41:                                               ; preds = %38
  store i32 -1, ptr %1, align 4
  store i32 1, ptr %4, align 4
  br label %45

42:                                               ; preds = %38, %35
  %43 = load i32, ptr @SDL_hidapi_refcount, align 4
  %44 = add nsw i32 %43, 1
  store i32 %44, ptr @SDL_hidapi_refcount, align 4
  store i32 0, ptr %1, align 4
  store i32 1, ptr %4, align 4
  br label %45

45:                                               ; preds = %42, %41, %7
  call void @llvm.lifetime.end.p0(i64 4, ptr %3) #10
  call void @llvm.lifetime.end.p0(i64 4, ptr %2) #10
  %46 = load i32, ptr %1, align 4
  ret i32 %46
}