; Function Attrs: nounwind uwtable
define hidden range(i32 -1, 1) i32 @SDL_hid_init_REAL() local_unnamed_addr #1 {
  %1 = load i32, ptr @SDL_hidapi_refcount, align 4
  %2 = icmp sgt i32 %1, 0
  br i1 %2, label %.critedge.sink.split, label %3

3:                                                ; preds = %0
  %4 = tail call zeroext i1 @SDL_AddHintCallback_REAL(ptr noundef nonnull @.str.19, ptr noundef nonnull @OnlyControllersChanged, ptr noundef null) #22
  %5 = tail call zeroext i1 @SDL_AddHintCallback_REAL(ptr noundef nonnull @.str.20, ptr noundef nonnull @IgnoredDevicesChanged, ptr noundef null) #22
  %6 = tail call zeroext i1 @SDL_GetHintBoolean_REAL(ptr noundef nonnull @.str.21, i1 noundef zeroext true) #22
  br i1 %6, label %7, label %9

7:                                                ; preds = %3
  %8 = tail call i32 @SDL_GetSandbox_REAL() #22
  %.not = icmp eq i32 %8, 0
  %.str.24..str.23 = select i1 %.not, ptr @.str.24, ptr @.str.23
  %. = select i1 %.not, i32 1, i32 2
  br label %9

9:                                                ; preds = %7, %3
  %.str.23.sink = phi ptr [ @.str.22, %3 ], [ %.str.24..str.23, %7 ]
  %.sink = phi i32 [ 2, %3 ], [ %., %7 ]
  tail call void (i32, ptr, ...) @SDL_LogDebug_REAL(i32 noundef 7, ptr noundef nonnull %.str.23.sink) #22
  store i32 %.sink, ptr @linux_enumeration_method, align 4
  %10 = tail call zeroext i1 @SDL_GetHintBoolean_REAL(ptr noundef nonnull @.str.25, i1 noundef zeroext true) #22
  %11 = zext i1 %10 to i8
  store i8 %11, ptr @use_libusb_whitelist, align 1
  %12 = tail call ptr @SDL_UDEV_GetUdevSyms() #22
  store ptr %12, ptr @udev_ctx, align 8
  %.not8 = icmp eq ptr %12, null
  br i1 %.not8, label %.critedge, label %13

13:                                               ; preds = %9
  %14 = tail call zeroext i1 @SDL_ClearError_REAL() #22
  %15 = tail call ptr @setlocale(i32 noundef 0, ptr noundef null) #22
  %.not.i = icmp eq ptr %15, null
  br i1 %.not.i, label %16, label %PLATFORM_hid_init.exit

16:                                               ; preds = %13
  %17 = tail call ptr @setlocale(i32 noundef 0, ptr noundef nonnull @.str.1) #22
  br label %PLATFORM_hid_init.exit

PLATFORM_hid_init.exit:                           ; preds = %13, %16
  %18 = load i32, ptr @SDL_hidapi_refcount, align 4
  br label %.critedge.sink.split

.critedge.sink.split:                             ; preds = %0, %PLATFORM_hid_init.exit
  %.sink10 = phi i32 [ %18, %PLATFORM_hid_init.exit ], [ %1, %0 ]
  %19 = add nsw i32 %.sink10, 1
  store i32 %19, ptr @SDL_hidapi_refcount, align 4
  br label %.critedge

.critedge:                                        ; preds = %.critedge.sink.split, %9
  %.06 = phi i32 [ -1, %9 ], [ 0, %.critedge.sink.split ]
  ret i32 %.06
}